target datalayout = "e-m:e-p270:32:32-p271:32:32-p272:64:64-i64:64-i128:128-f80:128-n8:16:32:64-S128"
target triple = "x86_64-pc-linux-gnu"

%struct.slurm_topo_ops = type { ptr, ptr, ptr, ptr, ptr, ptr, ptr, ptr, ptr, ptr, ptr, ptr, ptr, ptr }
%struct.dynamic_plugin_data = type { ptr, i32 }

@ops = internal global %struct.slurm_topo_ops zeroinitializer, align 8
@active_topo_id = internal global i32 0, align 4

; Function Attrs: nounwind uwtable
define dso_local i32 @topology_g_topology_pack(ptr noundef %0, ptr noundef %1, i16 noundef zeroext %2) #0 {
  %4 = alloca i32, align 4
  %5 = alloca ptr, align 8
  %6 = alloca ptr, align 8
  %7 = alloca i16, align 2
  store ptr %0, ptr %5, align 8
  store ptr %1, ptr %6, align 8
  store i16 %2, ptr %7, align 2
  %8 = load i32, ptr @active_topo_id, align 4
  %9 = load ptr, ptr %6, align 8
  call void @pack32(i32 noundef %8, ptr noundef %9)
  %10 = load ptr, ptr %5, align 8
  %11 = icmp ne ptr %10, null
  br i1 %11, label %13, label %12

12:                                               ; preds = %3
  store i32 0, ptr %4, align 4
  br label %28

13:                                               ; preds = %3
  %14 = load ptr, ptr %5, align 8
  %15 = getelementptr inbounds nuw %struct.dynamic_plugin_data, ptr %14, i32 0, i32 1
  %16 = load i32, ptr %15, align 8
  %17 = load i32, ptr @active_topo_id, align 4
  %18 = icmp ne i32 %16, %17
  br i1 %18, label %19, label %20

19:                                               ; preds = %13
  store i32 -1, ptr %4, align 4
  br label %28

20:                                               ; preds = %13
  %21 = load ptr, ptr getelementptr inbounds nuw (%struct.slurm_topo_ops, ptr @ops, i32 0, i32 10), align 8
  %22 = load ptr, ptr %5, align 8
  %23 = getelementptr inbounds nuw %struct.dynamic_plugin_data, ptr %22, i32 0, i32 0
  %24 = load ptr, ptr %23, align 8
  %25 = load ptr, ptr %6, align 8
  %26 = load i16, ptr %7, align 2
  %27 = call i32 %21(ptr noundef %24, ptr noundef %25, i16 noundef zeroext %26)
  store i32 %27, ptr %4, align 4
  br label %28

28:                                               ; preds = %20, %19, %12
  %29 = load i32, ptr %4, align 4
  ret i32 %29
}