; Function Attrs: nounwind uwtable
define dso_local i32 @topology_g_topology_pack(ptr noundef readonly captures(address_is_null) %0, ptr noundef %1, i16 noundef zeroext %2) local_unnamed_addr #0 {
  %4 = load i32, ptr @active_topo_id, align 4
  tail call void @pack32(i32 noundef %4, ptr noundef %1) #9
  %.not = icmp eq ptr %0, null
  br i1 %.not, label %13, label %5

5:                                                ; preds = %3
  %6 = getelementptr inbounds nuw i8, ptr %0, i64 8
  %7 = load i32, ptr %6, align 8
  %8 = load i32, ptr @active_topo_id, align 4
  %.not7 = icmp eq i32 %7, %8
  br i1 %.not7, label %9, label %13

9:                                                ; preds = %5
  %10 = load ptr, ptr getelementptr inbounds nuw (i8, ptr @ops, i64 80), align 8
  %11 = load ptr, ptr %0, align 8
  %12 = tail call i32 %10(ptr noundef %11, ptr noundef %1, i16 noundef zeroext %2) #9
  br label %13

13:                                               ; preds = %5, %3, %9
  %.0 = phi i32 [ %12, %9 ], [ 0, %3 ], [ -1, %5 ]
  ret i32 %.0
}